target datalayout = "e-m:e-p270:32:32-p271:32:32-p272:64:64-i64:64-i128:128-f80:128-n8:16:32:64-S128"
target triple = "x86_64-pc-linux-gnu"

%struct.VLCElem = type { %union.anon }
%union.anon = type { %struct.anon }
%struct.anon = type { i16, i16 }
%struct.VLCInitState = type { ptr, i32 }

@ff_msmp4_mb_i_vlc = hidden global [536 x %struct.VLCElem] zeroinitializer, align 16
@ff_msmp4_dc_vlc = hidden global [2 x [2 x ptr]] zeroinitializer, align 16
@__const.msmp4_vc1_vlcs_init.state = private unnamed_addr constant { ptr, i32, [4 x i8] } { ptr @msmp4_vc1_vlcs_init.vlc_buf, i32 4968, [4 x i8] zeroinitializer }, align 8

; Function Attrs: inlinehint nounwind uwtable
define internal ptr @ff_vlc_init_tables(ptr noundef %0, i32 noundef %1, i32 noundef %2, ptr noundef %3, i32 noundef %4, i32 noundef %5, ptr noundef %6, i32 noundef %7, i32 noundef %8, i32 noundef %9) #4 {
  %11 = alloca ptr, align 8
  %12 = alloca i32, align 4
  %13 = alloca i32, align 4
  %14 = alloca ptr, align 8
  %15 = alloca i32, align 4
  %16 = alloca i32, align 4
  %17 = alloca ptr, align 8
  %18 = alloca i32, align 4
  %19 = alloca i32, align 4
  %20 = alloca i32, align 4
  store ptr %0, ptr %11, align 8, !tbaa !14
  store i32 %1, ptr %12, align 4, !tbaa !4
  store i32 %2, ptr %13, align 4, !tbaa !4
  store ptr %3, ptr %14, align 8, !tbaa !16
  store i32 %4, ptr %15, align 4, !tbaa !4
  store i32 %5, ptr %16, align 4, !tbaa !4
  store ptr %6, ptr %17, align 8, !tbaa !16
  store i32 %7, ptr %18, align 4, !tbaa !4
  store i32 %8, ptr %19, align 4, !tbaa !4
  store i32 %9, ptr %20, align 4, !tbaa !4
  %21 = load ptr, ptr %11, align 8, !tbaa !14
  %22 = load i32, ptr %12, align 4, !tbaa !4
  %23 = load i32, ptr %13, align 4, !tbaa !4
  %24 = load ptr, ptr %14, align 8, !tbaa !16
  %25 = load i32, ptr %15, align 4, !tbaa !4
  %26 = load i32, ptr %16, align 4, !tbaa !4
  %27 = load ptr, ptr %17, align 8, !tbaa !16
  %28 = load i32, ptr %18, align 4, !tbaa !4
  %29 = load i32, ptr %19, align 4, !tbaa !4
  %30 = load i32, ptr %20, align 4, !tbaa !4
  %31 = call ptr @ff_vlc_init_tables_sparse(ptr noundef %21, i32 noundef %22, i32 noundef %23, ptr noundef %24, i32 noundef %25, i32 noundef %26, ptr noundef %27, i32 noundef %28, i32 noundef %29, ptr noundef null, i32 noundef 0, i32 noundef 0, i32 noundef %30)
  ret ptr %31
}

; Function Attrs: cold nounwind optsize uwtable
define internal void @msmp4_vc1_vlcs_init() #0 {
  %1 = alloca %struct.VLCInitState, align 8
  %2 = alloca i32, align 4
  %3 = alloca i32, align 4
  %4 = alloca i32, align 4
  call void @llvm.lifetime.start.p0(i64 16, ptr %1) #5
  call void @llvm.memcpy.p0.p0.i64(ptr align 8 %1, ptr align 8 @__const.msmp4_vc1_vlcs_init.state, i64 16, i1 false)
  call void @llvm.lifetime.start.p0(i64 4, ptr %2) #5
  store i32 0, ptr %2, align 4, !tbaa !4
  br label %5

5:                                                ; preds = %42, %0
  %6 = load i32, ptr %2, align 4, !tbaa !4
  %7 = icmp slt i32 %6, 2
  br i1 %7, label %9, label %8

8:                                                ; preds = %5
  store i32 2, ptr %3, align 4
  call void @llvm.lifetime.end.p0(i64 4, ptr %2) #5
  br label %45

9:                                                ; preds = %5
  call void @llvm.lifetime.start.p0(i64 4, ptr %4) #5
  store i32 0, ptr %4, align 4, !tbaa !4
  br label %10

10:                                               ; preds = %38, %9
  %11 = load i32, ptr %4, align 4, !tbaa !4
  %12 = icmp slt i32 %11, 2
  br i1 %12, label %14, label %13

13:                                               ; preds = %10
  store i32 5, ptr %3, align 4
  call void @llvm.lifetime.end.p0(i64 4, ptr %4) #5
  br label %41

14:                                               ; preds = %10
  %15 = load i32, ptr %2, align 4, !tbaa !4
  %16 = sext i32 %15 to i64
  %17 = getelementptr inbounds [2 x [2 x [120 x [2 x i32]]]], ptr @ff_msmp4_dc_tables, i64 0, i64 %16
  %18 = load i32, ptr %4, align 4, !tbaa !4
  %19 = sext i32 %18 to i64
  %20 = getelementptr inbounds [2 x [120 x [2 x i32]]], ptr %17, i64 0, i64 %19
  %21 = getelementptr inbounds [120 x [2 x i32]], ptr %20, i64 0, i64 0
  %22 = getelementptr inbounds [2 x i32], ptr %21, i64 0, i64 1
  %23 = load i32, ptr %2, align 4, !tbaa !4
  %24 = sext i32 %23 to i64
  %25 = getelementptr inbounds [2 x [2 x [120 x [2 x i32]]]], ptr @ff_msmp4_dc_tables, i64 0, i64 %24
  %26 = load i32, ptr %4, align 4, !tbaa !4
  %27 = sext i32 %26 to i64
  %28 = getelementptr inbounds [2 x [120 x [2 x i32]]], ptr %25, i64 0, i64 %27
  %29 = getelementptr inbounds [120 x [2 x i32]], ptr %28, i64 0, i64 0
  %30 = getelementptr inbounds [2 x i32], ptr %29, i64 0, i64 0
  %31 = call ptr @ff_vlc_init_tables(ptr noundef %1, i32 noundef 9, i32 noundef 120, ptr noundef %22, i32 noundef 8, i32 noundef 4, ptr noundef %30, i32 noundef 8, i32 noundef 4, i32 noundef 0)
  %32 = load i32, ptr %2, align 4, !tbaa !4
  %33 = sext i32 %32 to i64
  %34 = getelementptr inbounds [2 x [2 x ptr]], ptr @ff_msmp4_dc_vlc, i64 0, i64 %33
  %35 = load i32, ptr %4, align 4, !tbaa !4
  %36 = sext i32 %35 to i64
  %37 = getelementptr inbounds [2 x ptr], ptr %34, i64 0, i64 %36
  store ptr %31, ptr %37, align 8, !tbaa !8
  br label %38

38:                                               ; preds = %14
  %39 = load i32, ptr %4, align 4, !tbaa !4
  %40 = add nsw i32 %39, 1
  store i32 %40, ptr %4, align 4, !tbaa !4
  br label %10, !llvm.loop !11

41:                                               ; preds = %13
  br label %42

42:                                               ; preds = %41
  %43 = load i32, ptr %2, align 4, !tbaa !4
  %44 = add nsw i32 %43, 1
  store i32 %44, ptr %2, align 4, !tbaa !4
  br label %5, !llvm.loop !13

45:                                               ; preds = %8
  call void @ff_vlc_init_table_sparse(ptr noundef @ff_msmp4_mb_i_vlc, i32 noundef 536, i32 noundef 9, i32 noundef 64, ptr noundef getelementptr inbounds ([2 x i16], ptr @ff_msmp4_mb_i_table, i64 0, i64 1), i32 noundef 4, i32 noundef 2, ptr noundef @ff_msmp4_mb_i_table, i32 noundef 4, i32 noundef 2, ptr noundef null, i32 noundef 0, i32 noundef 0, i32 noundef 0)
  call void @llvm.lifetime.end.p0(i64 16, ptr %1) #5
  ret void
}