; Function Attrs: cold nounwind optsize uwtable
define internal void @msmp4_vc1_vlcs_init() #0 {
.preheader:
  %0 = alloca %struct.VLCInitState, align 8
  call void @llvm.lifetime.start.p0(i64 16, ptr nonnull %0) #4
  call void @llvm.memcpy.p0.p0.i64(ptr noundef nonnull align 8 dereferenceable(16) %0, ptr noundef nonnull align 8 dereferenceable(16) @__const.msmp4_vc1_vlcs_init.state, i64 16, i1 false)
  %1 = call ptr @ff_vlc_init_tables_sparse(ptr noundef nonnull %0, i32 noundef 9, i32 noundef 120, ptr noundef nonnull getelementptr inbounds nuw (i8, ptr @ff_msmp4_dc_tables, i64 4), i32 noundef 8, i32 noundef 4, ptr noundef nonnull @ff_msmp4_dc_tables, i32 noundef 8, i32 noundef 4, ptr noundef null, i32 noundef 0, i32 noundef 0, i32 noundef 0) #4
  store ptr %1, ptr @ff_msmp4_dc_vlc, align 16, !tbaa !4
  %2 = call ptr @ff_vlc_init_tables_sparse(ptr noundef nonnull %0, i32 noundef 9, i32 noundef 120, ptr noundef nonnull getelementptr inbounds nuw (i8, ptr @ff_msmp4_dc_tables, i64 964), i32 noundef 8, i32 noundef 4, ptr noundef nonnull getelementptr inbounds nuw (i8, ptr @ff_msmp4_dc_tables, i64 960), i32 noundef 8, i32 noundef 4, ptr noundef null, i32 noundef 0, i32 noundef 0, i32 noundef 0) #4
  store ptr %2, ptr getelementptr inbounds nuw (i8, ptr @ff_msmp4_dc_vlc, i64 8), align 8, !tbaa !4
  %3 = call ptr @ff_vlc_init_tables_sparse(ptr noundef nonnull %0, i32 noundef 9, i32 noundef 120, ptr noundef nonnull getelementptr inbounds nuw (i8, ptr @ff_msmp4_dc_tables, i64 1924), i32 noundef 8, i32 noundef 4, ptr noundef nonnull getelementptr inbounds nuw (i8, ptr @ff_msmp4_dc_tables, i64 1920), i32 noundef 8, i32 noundef 4, ptr noundef null, i32 noundef 0, i32 noundef 0, i32 noundef 0) #4
  store ptr %3, ptr getelementptr inbounds nuw (i8, ptr @ff_msmp4_dc_vlc, i64 16), align 16, !tbaa !4
  %4 = call ptr @ff_vlc_init_tables_sparse(ptr noundef nonnull %0, i32 noundef 9, i32 noundef 120, ptr noundef nonnull getelementptr inbounds nuw (i8, ptr @ff_msmp4_dc_tables, i64 2884), i32 noundef 8, i32 noundef 4, ptr noundef nonnull getelementptr inbounds nuw (i8, ptr @ff_msmp4_dc_tables, i64 2880), i32 noundef 8, i32 noundef 4, ptr noundef null, i32 noundef 0, i32 noundef 0, i32 noundef 0) #4
  store ptr %4, ptr getelementptr inbounds nuw (i8, ptr @ff_msmp4_dc_vlc, i64 24), align 8, !tbaa !4
  call void @ff_vlc_init_table_sparse(ptr noundef nonnull @ff_msmp4_mb_i_vlc, i32 noundef 536, i32 noundef 9, i32 noundef 64, ptr noundef nonnull getelementptr inbounds nuw (i8, ptr @ff_msmp4_mb_i_table, i64 2), i32 noundef 4, i32 noundef 2, ptr noundef nonnull @ff_msmp4_mb_i_table, i32 noundef 4, i32 noundef 2, ptr noundef null, i32 noundef 0, i32 noundef 0, i32 noundef 0) #4
  call void @llvm.lifetime.end.p0(i64 16, ptr nonnull %0) #4
  ret void
}